target datalayout = "e-m:e-p270:32:32-p271:32:32-p272:64:64-i64:64-i128:128-f80:128-n8:16:32:64-S128"
target triple = "x86_64-pc-linux-gnu"

@ranap_ies_dissector_table = internal global ptr null, align 8
@pdu_type = hidden global i32 0, align 4
@ProtocolIE_ID = internal global i32 0, align 4
@ProcedureCode = internal global i32 0, align 4

; Function Attrs: null_pointer_is_valid sspstrong uwtable
define internal i32 @dissect_ProtocolIEFieldValue(ptr noundef %0, ptr noundef %1, ptr noundef %2, ptr noundef %3) #0 {
  %5 = alloca ptr, align 8
  %6 = alloca ptr, align 8
  %7 = alloca ptr, align 8
  %8 = alloca ptr, align 8
  %9 = alloca i32, align 4
  %10 = alloca i32, align 4
  store ptr %0, ptr %5, align 8
  store ptr %1, ptr %6, align 8
  store ptr %2, ptr %7, align 8
  store ptr %3, ptr %8, align 8
  call void @llvm.lifetime.start.p0(i64 4, ptr %9) #5
  store i32 0, ptr %9, align 4
  call void @llvm.lifetime.start.p0(i64 4, ptr %10) #5
  %11 = load i32, ptr @ProcedureCode, align 4
  switch i32 %11, label %35 [
    i32 2, label %12
  ]

12:                                               ; preds = %4
  %13 = load i32, ptr @ProtocolIE_ID, align 4
  %14 = icmp eq i32 %13, 61
  br i1 %14, label %18, label %15

15:                                               ; preds = %12
  %16 = load i32, ptr @ProtocolIE_ID, align 4
  %17 = icmp eq i32 %16, 63
  br i1 %17, label %18, label %34

18:                                               ; preds = %15, %12
  %19 = load i32, ptr @ProtocolIE_ID, align 4
  %20 = or i32 262144, %19
  store i32 %20, ptr %10, align 4
  %21 = load ptr, ptr @ranap_ies_dissector_table, align 8
  %22 = load i32, ptr %10, align 4
  %23 = load ptr, ptr %5, align 8
  %24 = load ptr, ptr %6, align 8
  %25 = load ptr, ptr %7, align 8
  %26 = call i32 @dissector_try_uint_with_data(ptr noundef %21, i32 noundef %22, ptr noundef %23, ptr noundef %24, ptr noundef %25, i1 noundef zeroext false, ptr noundef null)
  %27 = icmp ne i32 %26, 0
  br i1 %27, label %28, label %31

28:                                               ; preds = %18
  %29 = load ptr, ptr %5, align 8
  %30 = call i32 @tvb_captured_length(ptr noundef %29)
  br label %32

31:                                               ; preds = %18
  br label %32

32:                                               ; preds = %31, %28
  %33 = phi i32 [ %30, %28 ], [ 0, %31 ]
  store i32 %33, ptr %9, align 4
  br label %69

34:                                               ; preds = %15
  br label %35

35:                                               ; preds = %4, %34
  %36 = load ptr, ptr @ranap_ies_dissector_table, align 8
  %37 = load i32, ptr @ProtocolIE_ID, align 4
  %38 = load ptr, ptr %5, align 8
  %39 = load ptr, ptr %6, align 8
  %40 = load ptr, ptr %7, align 8
  %41 = call i32 @dissector_try_uint_with_data(ptr noundef %36, i32 noundef %37, ptr noundef %38, ptr noundef %39, ptr noundef %40, i1 noundef zeroext false, ptr noundef null)
  %42 = icmp ne i32 %41, 0
  br i1 %42, label %43, label %46

43:                                               ; preds = %35
  %44 = load ptr, ptr %5, align 8
  %45 = call i32 @tvb_captured_length(ptr noundef %44)
  br label %47

46:                                               ; preds = %35
  br label %47

47:                                               ; preds = %46, %43
  %48 = phi i32 [ %45, %43 ], [ 0, %46 ]
  store i32 %48, ptr %9, align 4
  %49 = load i32, ptr %9, align 4
  %50 = icmp eq i32 %49, 0
  br i1 %50, label %51, label %68

51:                                               ; preds = %47
  %52 = load i32, ptr @pdu_type, align 4
  %53 = load i32, ptr @ProtocolIE_ID, align 4
  %54 = or i32 %52, %53
  store i32 %54, ptr %10, align 4
  %55 = load ptr, ptr @ranap_ies_dissector_table, align 8
  %56 = load i32, ptr %10, align 4
  %57 = load ptr, ptr %5, align 8
  %58 = load ptr, ptr %6, align 8
  %59 = load ptr, ptr %7, align 8
  %60 = call i32 @dissector_try_uint_with_data(ptr noundef %55, i32 noundef %56, ptr noundef %57, ptr noundef %58, ptr noundef %59, i1 noundef zeroext false, ptr noundef null)
  %61 = icmp ne i32 %60, 0
  br i1 %61, label %62, label %65

62:                                               ; preds = %51
  %63 = load ptr, ptr %5, align 8
  %64 = call i32 @tvb_captured_length(ptr noundef %63)
  br label %66

65:                                               ; preds = %51
  br label %66

66:                                               ; preds = %65, %62
  %67 = phi i32 [ %64, %62 ], [ 0, %65 ]
  store i32 %67, ptr %9, align 4
  br label %68

68:                                               ; preds = %66, %47
  br label %69

69:                                               ; preds = %68, %32
  %70 = load i32, ptr %9, align 4
  call void @llvm.lifetime.end.p0(i64 4, ptr %10) #5
  call void @llvm.lifetime.end.p0(i64 4, ptr %9) #5
  ret i32 %70
}