; Function Attrs: null_pointer_is_valid sspstrong uwtable
define internal i32 @dissect_ProtocolIEFieldValue(ptr noundef %0, ptr noundef %1, ptr noundef %2, ptr readnone captures(none) %3) #0 {
  %5 = load i32, ptr @ProcedureCode, align 4
  %cond = icmp eq i32 %5, 2
  %.pre = load i32, ptr @ProtocolIE_ID, align 4
  %6 = and i32 %.pre, -3
  %or.cond = icmp eq i32 %6, 61
  %or.cond19 = select i1 %cond, i1 %or.cond, i1 false
  br i1 %or.cond19, label %7, label %11

7:                                                ; preds = %4
  %8 = or disjoint i32 %.pre, 262144
  %9 = load ptr, ptr @ranap_ies_dissector_table, align 8
  %10 = tail call i32 @dissector_try_uint_with_data(ptr noundef %9, i32 noundef %8, ptr noundef %0, ptr noundef %1, ptr noundef %2, i1 noundef zeroext false, ptr noundef null)
  %.not18 = icmp eq i32 %10, 0
  br i1 %.not18, label %23, label %.sink.split

11:                                               ; preds = %4
  %12 = load ptr, ptr @ranap_ies_dissector_table, align 8
  %13 = tail call i32 @dissector_try_uint_with_data(ptr noundef %12, i32 noundef %.pre, ptr noundef %0, ptr noundef %1, ptr noundef %2, i1 noundef zeroext false, ptr noundef null)
  %.not = icmp eq i32 %13, 0
  br i1 %.not, label %.thread, label %14

14:                                               ; preds = %11
  %15 = tail call i32 @tvb_captured_length(ptr noundef %0)
  %16 = icmp eq i32 %15, 0
  br i1 %16, label %.thread, label %23

.thread:                                          ; preds = %11, %14
  %17 = load i32, ptr @pdu_type, align 4
  %18 = load i32, ptr @ProtocolIE_ID, align 4
  %19 = or i32 %18, %17
  %20 = load ptr, ptr @ranap_ies_dissector_table, align 8
  %21 = tail call i32 @dissector_try_uint_with_data(ptr noundef %20, i32 noundef %19, ptr noundef %0, ptr noundef %1, ptr noundef %2, i1 noundef zeroext false, ptr noundef null)
  %.not17 = icmp eq i32 %21, 0
  br i1 %.not17, label %23, label %.sink.split

.sink.split:                                      ; preds = %.thread, %7
  %22 = tail call i32 @tvb_captured_length(ptr noundef %0)
  br label %23

23:                                               ; preds = %.sink.split, %.thread, %7, %14
  %.0 = phi i32 [ %15, %14 ], [ 0, %7 ], [ 0, %.thread ], [ %22, %.sink.split ]
  ret i32 %.0
}